; Function Attrs: nounwind uwtable
define internal fastcc void @pgoutput_send_begin(ptr noundef %0, ptr noundef %1) unnamed_addr #2 {
  %3 = alloca ptr, align 8
  %4 = getelementptr inbounds nuw i8, ptr %1, i64 64
  %5 = load i16, ptr %4, align 8
  %.not = icmp eq i16 %5, 0
  %6 = getelementptr inbounds nuw i8, ptr %1, i64 312
  %7 = load ptr, ptr %6, align 8
  tail call void @OutputPluginPrepareWrite(ptr noundef %0, i1 noundef zeroext %.not) #13
  %8 = getelementptr inbounds nuw i8, ptr %0, i64 256
  %9 = load ptr, ptr %8, align 8
  tail call void @logicalrep_write_begin(ptr noundef %9, ptr noundef %1) #13
  store i8 1, ptr %7, align 1
  %10 = getelementptr inbounds nuw i8, ptr %1, i64 72
  %11 = load i64, ptr %10, align 8
  br i1 %.not, label %send_repl_origin.exit, label %12

12:                                               ; preds = %2
  %13 = load i16, ptr %4, align 8
  call void @llvm.lifetime.start.p0(i64 8, ptr nonnull %3) #13
  %14 = call zeroext i1 @replorigin_by_oid(i16 noundef zeroext %13, i1 noundef zeroext true, ptr noundef nonnull %3) #13
  br i1 %14, label %15, label %18

15:                                               ; preds = %12
  call void @OutputPluginWrite(ptr noundef nonnull %0, i1 noundef zeroext false) #13
  call void @OutputPluginPrepareWrite(ptr noundef nonnull %0, i1 noundef zeroext true) #13
  %16 = load ptr, ptr %8, align 8
  %17 = load ptr, ptr %3, align 8
  call void @logicalrep_write_origin(ptr noundef %16, ptr noundef %17, i64 noundef %11) #13
  br label %18

18:                                               ; preds = %15, %12
  call void @llvm.lifetime.end.p0(i64 8, ptr nonnull %3) #13
  br label %send_repl_origin.exit

send_repl_origin.exit:                            ; preds = %2, %18
  call void @OutputPluginWrite(ptr noundef nonnull %0, i1 noundef zeroext true) #13
  ret void
}